target datalayout = "e-m:e-p270:32:32-p271:32:32-p272:64:64-i64:64-i128:128-f80:128-n8:16:32:64-S128"
target triple = "x86_64-pc-linux-gnu"

%struct._generic_N_Vector = type { ptr, ptr, ptr }
%struct._N_VectorContent_SensWrapper = type { ptr, i32, i32 }

; Function Attrs: nounwind uwtable
define double @N_VWrmsNormMask_SensWrapper(ptr noundef %0, ptr noundef %1, ptr noundef %2) #0 {
  %4 = alloca ptr, align 8
  %5 = alloca ptr, align 8
  %6 = alloca ptr, align 8
  %7 = alloca i32, align 4
  %8 = alloca double, align 8
  %9 = alloca double, align 8
  store ptr %0, ptr %4, align 8, !tbaa !10
  store ptr %1, ptr %5, align 8, !tbaa !10
  store ptr %2, ptr %6, align 8, !tbaa !10
  call void @llvm.lifetime.start.p0(i64 4, ptr %7) #5
  call void @llvm.lifetime.start.p0(i64 8, ptr %8) #5
  call void @llvm.lifetime.start.p0(i64 8, ptr %9) #5
  store double 0.000000e+00, ptr %8, align 8, !tbaa !61
  store i32 0, ptr %7, align 4, !tbaa !3
  br label %10

10:                                               ; preds = %53, %3
  %11 = load i32, ptr %7, align 4, !tbaa !3
  %12 = load ptr, ptr %4, align 8, !tbaa !10
  %13 = getelementptr inbounds nuw %struct._generic_N_Vector, ptr %12, i32 0, i32 0
  %14 = load ptr, ptr %13, align 8, !tbaa !45
  %15 = getelementptr inbounds nuw %struct._N_VectorContent_SensWrapper, ptr %14, i32 0, i32 1
  %16 = load i32, ptr %15, align 8, !tbaa !40
  %17 = icmp slt i32 %11, %16
  br i1 %17, label %18, label %56

18:                                               ; preds = %10
  %19 = load ptr, ptr %4, align 8, !tbaa !10
  %20 = getelementptr inbounds nuw %struct._generic_N_Vector, ptr %19, i32 0, i32 0
  %21 = load ptr, ptr %20, align 8, !tbaa !45
  %22 = getelementptr inbounds nuw %struct._N_VectorContent_SensWrapper, ptr %21, i32 0, i32 0
  %23 = load ptr, ptr %22, align 8, !tbaa !44
  %24 = load i32, ptr %7, align 4, !tbaa !3
  %25 = sext i32 %24 to i64
  %26 = getelementptr inbounds ptr, ptr %23, i64 %25
  %27 = load ptr, ptr %26, align 8, !tbaa !10
  %28 = load ptr, ptr %5, align 8, !tbaa !10
  %29 = getelementptr inbounds nuw %struct._generic_N_Vector, ptr %28, i32 0, i32 0
  %30 = load ptr, ptr %29, align 8, !tbaa !45
  %31 = getelementptr inbounds nuw %struct._N_VectorContent_SensWrapper, ptr %30, i32 0, i32 0
  %32 = load ptr, ptr %31, align 8, !tbaa !44
  %33 = load i32, ptr %7, align 4, !tbaa !3
  %34 = sext i32 %33 to i64
  %35 = getelementptr inbounds ptr, ptr %32, i64 %34
  %36 = load ptr, ptr %35, align 8, !tbaa !10
  %37 = load ptr, ptr %6, align 8, !tbaa !10
  %38 = getelementptr inbounds nuw %struct._generic_N_Vector, ptr %37, i32 0, i32 0
  %39 = load ptr, ptr %38, align 8, !tbaa !45
  %40 = getelementptr inbounds nuw %struct._N_VectorContent_SensWrapper, ptr %39, i32 0, i32 0
  %41 = load ptr, ptr %40, align 8, !tbaa !44
  %42 = load i32, ptr %7, align 4, !tbaa !3
  %43 = sext i32 %42 to i64
  %44 = getelementptr inbounds ptr, ptr %41, i64 %43
  %45 = load ptr, ptr %44, align 8, !tbaa !10
  %46 = call double @N_VWrmsNormMask(ptr noundef %27, ptr noundef %36, ptr noundef %45)
  store double %46, ptr %9, align 8, !tbaa !61
  %47 = load double, ptr %9, align 8, !tbaa !61
  %48 = load double, ptr %8, align 8, !tbaa !61
  %49 = fcmp ogt double %47, %48
  br i1 %49, label %50, label %52

50:                                               ; preds = %18
  %51 = load double, ptr %9, align 8, !tbaa !61
  store double %51, ptr %8, align 8, !tbaa !61
  br label %52

52:                                               ; preds = %50, %18
  br label %53

53:                                               ; preds = %52
  %54 = load i32, ptr %7, align 4, !tbaa !3
  %55 = add nsw i32 %54, 1
  store i32 %55, ptr %7, align 4, !tbaa !3
  br label %10

56:                                               ; preds = %10
  %57 = load double, ptr %8, align 8, !tbaa !61
  call void @llvm.lifetime.end.p0(i64 8, ptr %9) #5
  call void @llvm.lifetime.end.p0(i64 8, ptr %8) #5
  call void @llvm.lifetime.end.p0(i64 4, ptr %7) #5
  ret double %57
}