; Function Attrs: nounwind uwtable
define double @N_VWrmsNormMask_SensWrapper(ptr noundef readonly captures(none) %0, ptr noundef readonly captures(none) %1, ptr noundef readonly captures(none) %2) #0 {
  %4 = load ptr, ptr %0, align 8, !tbaa !39
  %5 = getelementptr inbounds nuw i8, ptr %4, i64 8
  %6 = load i32, ptr %5, align 8, !tbaa !33
  %7 = icmp sgt i32 %6, 0
  br i1 %7, label %.lr.ph, label %._crit_edge

.lr.ph:                                           ; preds = %3, %.lr.ph
  %indvars.iv = phi i64 [ %indvars.iv.next, %.lr.ph ], [ 0, %3 ]
  %8 = phi ptr [ %22, %.lr.ph ], [ %4, %3 ]
  %.01214 = phi double [ %.1, %.lr.ph ], [ 0.000000e+00, %3 ]
  %9 = load ptr, ptr %8, align 8, !tbaa !38
  %10 = getelementptr inbounds nuw ptr, ptr %9, i64 %indvars.iv
  %11 = load ptr, ptr %10, align 8, !tbaa !40
  %12 = load ptr, ptr %1, align 8, !tbaa !39
  %13 = load ptr, ptr %12, align 8, !tbaa !38
  %14 = getelementptr inbounds nuw ptr, ptr %13, i64 %indvars.iv
  %15 = load ptr, ptr %14, align 8, !tbaa !40
  %16 = load ptr, ptr %2, align 8, !tbaa !39
  %17 = load ptr, ptr %16, align 8, !tbaa !38
  %18 = getelementptr inbounds nuw ptr, ptr %17, i64 %indvars.iv
  %19 = load ptr, ptr %18, align 8, !tbaa !40
  %20 = tail call double @N_VWrmsNormMask(ptr noundef %11, ptr noundef %15, ptr noundef %19) #7
  %21 = fcmp ogt double %20, %.01214
  %.1 = select i1 %21, double %20, double %.01214
  %indvars.iv.next = add nuw nsw i64 %indvars.iv, 1
  %22 = load ptr, ptr %0, align 8, !tbaa !39
  %23 = getelementptr inbounds nuw i8, ptr %22, i64 8
  %24 = load i32, ptr %23, align 8, !tbaa !33
  %25 = sext i32 %24 to i64
  %26 = icmp slt i64 %indvars.iv.next, %25
  br i1 %26, label %.lr.ph, label %._crit_edge

._crit_edge:                                      ; preds = %.lr.ph, %3
  %.012.lcssa = phi double [ 0.000000e+00, %3 ], [ %.1, %.lr.ph ]
  ret double %.012.lcssa
}